
main.elf:     file format elf32-littleriscv


Disassembly of section .text:

00000000 <_isr_handler>:
       0:	0080006f          	j	8 <_isr_routine>
       4:	1440006f          	j	148 <_start>

00000008 <_isr_routine>:
       8:	f8010113          	addi	sp,sp,-128
       c:	00112023          	sw	ra,0(sp)
      10:	00312423          	sw	gp,8(sp)
      14:	00412623          	sw	tp,12(sp)
      18:	00512823          	sw	t0,16(sp)
      1c:	00612a23          	sw	t1,20(sp)
      20:	00712c23          	sw	t2,24(sp)
      24:	00812e23          	sw	s0,28(sp)
      28:	02912023          	sw	s1,32(sp)
      2c:	02a12223          	sw	a0,36(sp)
      30:	02b12423          	sw	a1,40(sp)
      34:	02c12623          	sw	a2,44(sp)
      38:	02d12823          	sw	a3,48(sp)
      3c:	02e12a23          	sw	a4,52(sp)
      40:	02f12c23          	sw	a5,56(sp)
      44:	03012e23          	sw	a6,60(sp)
      48:	05112023          	sw	a7,64(sp)
      4c:	05212223          	sw	s2,68(sp)
      50:	05312423          	sw	s3,72(sp)
      54:	05412623          	sw	s4,76(sp)
      58:	05512823          	sw	s5,80(sp)
      5c:	05612a23          	sw	s6,84(sp)
      60:	05712c23          	sw	s7,88(sp)
      64:	05812e23          	sw	s8,92(sp)
      68:	07912023          	sw	s9,96(sp)
      6c:	07a12223          	sw	s10,100(sp)
      70:	07b12423          	sw	s11,104(sp)
      74:	07c12623          	sw	t3,108(sp)
      78:	07d12823          	sw	t4,112(sp)
      7c:	07e12a23          	sw	t5,116(sp)
      80:	07f12c23          	sw	t6,120(sp)
      84:	342022f3          	csrr	t0,mcause
      88:	80000337          	lui	t1,0x80000
      8c:	02536463          	bltu	t1,t0,b4 <external_irq>
      90:	00028833          	add	a6,t0,zero
      94:	00b00313          	li	t1,11
      98:	00628463          	beq	t0,t1,a0 <skip_init_args>
      9c:	34102573          	csrr	a0,mepc

000000a0 <skip_init_args>:
      a0:	335000ef          	jal	bd4 <handle_exception>
      a4:	341022f3          	csrr	t0,mepc
      a8:	00428293          	addi	t0,t0,4
      ac:	34129073          	csrw	mepc,t0
      b0:	0180006f          	j	c8 <restore>

000000b4 <external_irq>:
      b4:	800002b7          	lui	t0,0x80000
      b8:	fff28293          	addi	t0,t0,-1 # 7fffffff <_stack_end+0x7fefc89b>
      bc:	34202373          	csrr	t1,mcause
      c0:	0062f533          	and	a0,t0,t1
      c4:	1e4000ef          	jal	2a8 <handle_interrupt>

000000c8 <restore>:
      c8:	00012083          	lw	ra,0(sp)
      cc:	00812183          	lw	gp,8(sp)
      d0:	00c12203          	lw	tp,12(sp)
      d4:	01012283          	lw	t0,16(sp)
      d8:	01412303          	lw	t1,20(sp)
      dc:	01812383          	lw	t2,24(sp)
      e0:	01c12403          	lw	s0,28(sp)
      e4:	02012483          	lw	s1,32(sp)
      e8:	02412503          	lw	a0,36(sp)
      ec:	02812583          	lw	a1,40(sp)
      f0:	02c12603          	lw	a2,44(sp)
      f4:	03012683          	lw	a3,48(sp)
      f8:	03412703          	lw	a4,52(sp)
      fc:	03812783          	lw	a5,56(sp)
     100:	03c12803          	lw	a6,60(sp)
     104:	04012883          	lw	a7,64(sp)
     108:	04412903          	lw	s2,68(sp)
     10c:	04812983          	lw	s3,72(sp)
     110:	04c12a03          	lw	s4,76(sp)
     114:	05012a83          	lw	s5,80(sp)
     118:	05412b03          	lw	s6,84(sp)
     11c:	05812b83          	lw	s7,88(sp)
     120:	05c12c03          	lw	s8,92(sp)
     124:	06012c83          	lw	s9,96(sp)
     128:	06412d03          	lw	s10,100(sp)
     12c:	06812d83          	lw	s11,104(sp)
     130:	06c12e03          	lw	t3,108(sp)
     134:	07012e83          	lw	t4,112(sp)
     138:	07412f03          	lw	t5,116(sp)
     13c:	07812f83          	lw	t6,120(sp)
     140:	08010113          	addi	sp,sp,128
     144:	30200073          	mret

00000148 <_start>:
     148:	30401073          	csrw	mie,zero
     14c:	00103117          	auipc	sp,0x103
     150:	61810113          	addi	sp,sp,1560 # 103764 <_stack_end>
     154:	00002197          	auipc	gp,0x2
     158:	90518193          	addi	gp,gp,-1787 # 1a59 <__global_pointer>
     15c:	00001517          	auipc	a0,0x1
     160:	02050513          	addi	a0,a0,32 # 117c <welcome_msg>
     164:	00400893          	li	a7,4
     168:	00000073          	ecall
     16c:	344000ef          	jal	4b0 <main>

00000170 <loop>:
     170:	0000006f          	j	170 <loop>

00000174 <enable_interrupt>:
     174:	3001e073          	csrsi	mstatus,3
     178:	30486073          	csrsi	mie,16
     17c:	00008067          	ret

00000180 <menu_init>:
     180:	00300793          	li	a5,3
     184:	00052023          	sw	zero,0(a0)
     188:	00f52223          	sw	a5,4(a0)
     18c:	00052423          	sw	zero,8(a0)
     190:	00052623          	sw	zero,12(a0)
     194:	00052823          	sw	zero,16(a0)
     198:	00052a23          	sw	zero,20(a0)
     19c:	00008067          	ret

000001a0 <menu_update>:
     1a0:	0045f793          	andi	a5,a1,4
     1a4:	0017b793          	seqz	a5,a5
     1a8:	40f007b3          	neg	a5,a5
     1ac:	4035d813          	srai	a6,a1,0x3
     1b0:	4045d613          	srai	a2,a1,0x4
     1b4:	4055d693          	srai	a3,a1,0x5
     1b8:	4065d713          	srai	a4,a1,0x6
     1bc:	ffe7f793          	andi	a5,a5,-2
     1c0:	0035f593          	andi	a1,a1,3
     1c4:	00578793          	addi	a5,a5,5
     1c8:	00187813          	andi	a6,a6,1
     1cc:	00167613          	andi	a2,a2,1
     1d0:	0016f693          	andi	a3,a3,1
     1d4:	00177713          	andi	a4,a4,1
     1d8:	00b52023          	sw	a1,0(a0)
     1dc:	00f52223          	sw	a5,4(a0)
     1e0:	01052423          	sw	a6,8(a0)
     1e4:	00c52623          	sw	a2,12(a0)
     1e8:	00d52823          	sw	a3,16(a0)
     1ec:	00e52a23          	sw	a4,20(a0)
     1f0:	00008067          	ret

000001f4 <menu_show>:
     1f4:	00852783          	lw	a5,8(a0)
     1f8:	00c52803          	lw	a6,12(a0)
     1fc:	01052583          	lw	a1,16(a0)
     200:	00452703          	lw	a4,4(a0)
     204:	01452603          	lw	a2,20(a0)
     208:	00052683          	lw	a3,0(a0)
     20c:	00379793          	slli	a5,a5,0x3
     210:	00481513          	slli	a0,a6,0x4
     214:	00a7e7b3          	or	a5,a5,a0
     218:	00559593          	slli	a1,a1,0x5
     21c:	ffb70513          	addi	a0,a4,-5
     220:	00b7e7b3          	or	a5,a5,a1
     224:	00661613          	slli	a2,a2,0x6
     228:	00c7e7b3          	or	a5,a5,a2
     22c:	0036f713          	andi	a4,a3,3
     230:	00153513          	seqz	a0,a0
     234:	00e7e7b3          	or	a5,a5,a4
     238:	00251513          	slli	a0,a0,0x2
     23c:	00f56533          	or	a0,a0,a5
     240:	0a00006f          	j	2e0 <set_leds>

00000244 <labinit>:
     244:	00003537          	lui	a0,0x3
     248:	ff010113          	addi	sp,sp,-16
     24c:	48850513          	addi	a0,a0,1160 # 3488 <boxblur_3x3+0x24>
     250:	00112623          	sw	ra,12(sp)
     254:	039000ef          	jal	a8c <print>
     258:	040007b7          	lui	a5,0x4000
     25c:	00800713          	li	a4,8
     260:	0000c637          	lui	a2,0xc
     264:	02e7a223          	sw	a4,36(a5) # 4000024 <_stack_end+0x3efc8c0>
     268:	040006b7          	lui	a3,0x4000
     26c:	6c060613          	addi	a2,a2,1728 # c6c0 <boxblur_3x3+0x925c>
     270:	02c6a423          	sw	a2,40(a3) # 4000028 <_stack_end+0x3efc8c4>
     274:	04000737          	lui	a4,0x4000
     278:	02d00613          	li	a2,45
     27c:	02c72623          	sw	a2,44(a4) # 400002c <_stack_end+0x3efc8c8>
     280:	040006b7          	lui	a3,0x4000
     284:	0206a023          	sw	zero,32(a3) # 4000020 <_stack_end+0x3efc8bc>
     288:	00c12083          	lw	ra,12(sp)
     28c:	00700613          	li	a2,7
     290:	02c7a223          	sw	a2,36(a5)
     294:	04000737          	lui	a4,0x4000
     298:	00400793          	li	a5,4
     29c:	00f72c23          	sw	a5,24(a4) # 4000018 <_stack_end+0x3efc8b4>
     2a0:	01010113          	addi	sp,sp,16
     2a4:	00008067          	ret

000002a8 <handle_interrupt>:
     2a8:	01000793          	li	a5,16
     2ac:	00f50463          	beq	a0,a5,2b4 <handle_interrupt+0xc>
     2b0:	00008067          	ret
     2b4:	040007b7          	lui	a5,0x4000
     2b8:	0207a703          	lw	a4,32(a5) # 4000020 <_stack_end+0x3efc8bc>
     2bc:	02078793          	addi	a5,a5,32
     2c0:	00177713          	andi	a4,a4,1
     2c4:	fe0706e3          	beqz	a4,2b0 <handle_interrupt+0x8>
     2c8:	0007a023          	sw	zero,0(a5)
     2cc:	00003737          	lui	a4,0x3
     2d0:	26472783          	lw	a5,612(a4) # 3264 <timeoutcount>
     2d4:	00178793          	addi	a5,a5,1
     2d8:	26f72223          	sw	a5,612(a4)
     2dc:	00008067          	ret

000002e0 <set_leds>:
     2e0:	3ff57513          	andi	a0,a0,1023
     2e4:	040007b7          	lui	a5,0x4000
     2e8:	00a7a023          	sw	a0,0(a5) # 4000000 <_stack_end+0x3efc89c>
     2ec:	00008067          	ret

000002f0 <get_sw>:
     2f0:	040007b7          	lui	a5,0x4000
     2f4:	0107a503          	lw	a0,16(a5) # 4000010 <_stack_end+0x3efc8ac>
     2f8:	3ff57513          	andi	a0,a0,1023
     2fc:	00008067          	ret

00000300 <get_btn>:
     300:	040007b7          	lui	a5,0x4000
     304:	0d07a503          	lw	a0,208(a5) # 40000d0 <_stack_end+0x3efc96c>
     308:	00157513          	andi	a0,a0,1
     30c:	00008067          	ret

00000310 <set_displays>:
     310:	00500793          	li	a5,5
     314:	04a7ee63          	bltu	a5,a0,370 <set_displays+0x60>
     318:	302486b7          	lui	a3,0x30248
     31c:	78021737          	lui	a4,0x78021
     320:	000027b7          	lui	a5,0x2
     324:	ff010113          	addi	sp,sp,-16
     328:	80078793          	addi	a5,a5,-2048 # 1800 <output_img+0x59c>
     32c:	94068693          	addi	a3,a3,-1728 # 30247940 <_stack_end+0x301441dc>
     330:	21970713          	addi	a4,a4,537 # 78021219 <_stack_end+0x77f1dab5>
     334:	00f11623          	sh	a5,12(sp)
     338:	00d12223          	sw	a3,4(sp)
     33c:	00e12423          	sw	a4,8(sp)
     340:	00900793          	li	a5,9
     344:	02b7e263          	bltu	a5,a1,368 <set_displays+0x58>
     348:	01058793          	addi	a5,a1,16
     34c:	002785b3          	add	a1,a5,sp
     350:	ff45c703          	lbu	a4,-12(a1)
     354:	040007b7          	lui	a5,0x4000
     358:	00451513          	slli	a0,a0,0x4
     35c:	05078793          	addi	a5,a5,80 # 4000050 <_stack_end+0x3efc8ec>
     360:	00f50533          	add	a0,a0,a5
     364:	00e52023          	sw	a4,0(a0)
     368:	01010113          	addi	sp,sp,16
     36c:	00008067          	ret
     370:	00008067          	ret

00000374 <upload_image>:
     374:	00003537          	lui	a0,0x3
     378:	ff010113          	addi	sp,sp,-16
     37c:	4a050513          	addi	a0,a0,1184 # 34a0 <boxblur_3x3+0x3c>
     380:	00912223          	sw	s1,4(sp)
     384:	01212023          	sw	s2,0(sp)
     388:	00112623          	sw	ra,12(sp)
     38c:	00812423          	sw	s0,8(sp)
     390:	6fc000ef          	jal	a8c <print>
     394:	000017b7          	lui	a5,0x1
     398:	00002937          	lui	s2,0x2
     39c:	26490913          	addi	s2,s2,612 # 2264 <input_img>
     3a0:	04078793          	addi	a5,a5,64 # 1040 <exit>
     3a4:	04090493          	addi	s1,s2,64
     3a8:	00f90933          	add	s2,s2,a5
     3ac:	fc048413          	addi	s0,s1,-64
     3b0:	694000ef          	jal	a44 <uart_getchar>
     3b4:	fff54793          	not	a5,a0
     3b8:	41f7d793          	srai	a5,a5,0x1f
     3bc:	00f57533          	and	a0,a0,a5
     3c0:	00a40023          	sb	a0,0(s0)
     3c4:	00140413          	addi	s0,s0,1
     3c8:	fe9414e3          	bne	s0,s1,3b0 <upload_image+0x3c>
     3cc:	04040493          	addi	s1,s0,64
     3d0:	fd249ee3          	bne	s1,s2,3ac <upload_image+0x38>
     3d4:	00c12083          	lw	ra,12(sp)
     3d8:	00812403          	lw	s0,8(sp)
     3dc:	00412483          	lw	s1,4(sp)
     3e0:	00012903          	lw	s2,0(sp)
     3e4:	01010113          	addi	sp,sp,16
     3e8:	00008067          	ret

000003ec <download_image>:
     3ec:	00003537          	lui	a0,0x3
     3f0:	ff010113          	addi	sp,sp,-16
     3f4:	4b450513          	addi	a0,a0,1204 # 34b4 <boxblur_3x3+0x50>
     3f8:	00912223          	sw	s1,4(sp)
     3fc:	01212023          	sw	s2,0(sp)
     400:	00112623          	sw	ra,12(sp)
     404:	00812423          	sw	s0,8(sp)
     408:	684000ef          	jal	a8c <print>
     40c:	000017b7          	lui	a5,0x1
     410:	00001937          	lui	s2,0x1
     414:	26490913          	addi	s2,s2,612 # 1264 <output_img>
     418:	04078793          	addi	a5,a5,64 # 1040 <exit>
     41c:	04090493          	addi	s1,s2,64
     420:	00f90933          	add	s2,s2,a5
     424:	fc048413          	addi	s0,s1,-64
     428:	00044503          	lbu	a0,0(s0)
     42c:	00140413          	addi	s0,s0,1
     430:	5f4000ef          	jal	a24 <uart_putchar>
     434:	fe941ae3          	bne	s0,s1,428 <download_image+0x3c>
     438:	04040493          	addi	s1,s0,64
     43c:	ff2494e3          	bne	s1,s2,424 <download_image+0x38>
     440:	00812403          	lw	s0,8(sp)
     444:	00c12083          	lw	ra,12(sp)
     448:	00412483          	lw	s1,4(sp)
     44c:	00012903          	lw	s2,0(sp)
     450:	00003537          	lui	a0,0x3
     454:	4cc50513          	addi	a0,a0,1228 # 34cc <boxblur_3x3+0x68>
     458:	01010113          	addi	sp,sp,16
     45c:	6300006f          	j	a8c <print>

00000460 <reset_image>:
     460:	00003537          	lui	a0,0x3
     464:	ff010113          	addi	sp,sp,-16
     468:	4e850513          	addi	a0,a0,1256 # 34e8 <boxblur_3x3+0x84>
     46c:	00112623          	sw	ra,12(sp)
     470:	61c000ef          	jal	a8c <print>
     474:	00002537          	lui	a0,0x2
     478:	00001637          	lui	a2,0x1
     47c:	00000593          	li	a1,0
     480:	26450513          	addi	a0,a0,612 # 2264 <input_img>
     484:	419000ef          	jal	109c <memset>
     488:	00001537          	lui	a0,0x1
     48c:	00001637          	lui	a2,0x1
     490:	00000593          	li	a1,0
     494:	26450513          	addi	a0,a0,612 # 1264 <output_img>
     498:	405000ef          	jal	109c <memset>
     49c:	00c12083          	lw	ra,12(sp)
     4a0:	00003537          	lui	a0,0x3
     4a4:	4fc50513          	addi	a0,a0,1276 # 34fc <boxblur_3x3+0x98>
     4a8:	01010113          	addi	sp,sp,16
     4ac:	5e00006f          	j	a8c <print>

000004b0 <main>:
     4b0:	00003537          	lui	a0,0x3
     4b4:	f9010113          	addi	sp,sp,-112
     4b8:	48850513          	addi	a0,a0,1160 # 3488 <boxblur_3x3+0x24>
     4bc:	06112623          	sw	ra,108(sp)
     4c0:	06812423          	sw	s0,104(sp)
     4c4:	06912223          	sw	s1,100(sp)
     4c8:	07212023          	sw	s2,96(sp)
     4cc:	05312e23          	sw	s3,92(sp)
     4d0:	05412c23          	sw	s4,88(sp)
     4d4:	05512a23          	sw	s5,84(sp)
     4d8:	05612823          	sw	s6,80(sp)
     4dc:	05712623          	sw	s7,76(sp)
     4e0:	05812423          	sw	s8,72(sp)
     4e4:	05912223          	sw	s9,68(sp)
     4e8:	05a12023          	sw	s10,64(sp)
     4ec:	03b12e23          	sw	s11,60(sp)
     4f0:	59c000ef          	jal	a8c <print>
     4f4:	040007b7          	lui	a5,0x4000
     4f8:	00800693          	li	a3,8
     4fc:	0000c637          	lui	a2,0xc
     500:	02d7a223          	sw	a3,36(a5) # 4000024 <_stack_end+0x3efc8c0>
     504:	04000737          	lui	a4,0x4000
     508:	6c060613          	addi	a2,a2,1728 # c6c0 <boxblur_3x3+0x925c>
     50c:	02c72423          	sw	a2,40(a4) # 4000028 <_stack_end+0x3efc8c4>
     510:	040006b7          	lui	a3,0x4000
     514:	02d00613          	li	a2,45
     518:	02c6a623          	sw	a2,44(a3) # 400002c <_stack_end+0x3efc8c8>
     51c:	04000737          	lui	a4,0x4000
     520:	02072023          	sw	zero,32(a4) # 4000020 <_stack_end+0x3efc8bc>
     524:	00700613          	li	a2,7
     528:	02c7a223          	sw	a2,36(a5)
     52c:	040006b7          	lui	a3,0x4000
     530:	00400793          	li	a5,4
     534:	00018537          	lui	a0,0x18
     538:	00f6ac23          	sw	a5,24(a3) # 4000018 <_stack_end+0x3efc8b4>
     53c:	6a050513          	addi	a0,a0,1696 # 186a0 <boxblur_3x3+0x1523c>
     540:	2d1000ef          	jal	1010 <delay>
     544:	00003537          	lui	a0,0x3
     548:	51450513          	addi	a0,a0,1300 # 3514 <boxblur_3x3+0xb0>
     54c:	540000ef          	jal	a8c <print>
     550:	04000737          	lui	a4,0x4000
     554:	04472783          	lw	a5,68(a4) # 4000044 <_stack_end+0x3efc8e0>
     558:	4007f793          	andi	a5,a5,1024
     55c:	1e078c63          	beqz	a5,754 <main+0x2a4>
     560:	00003537          	lui	a0,0x3
     564:	52450513          	addi	a0,a0,1316 # 3524 <boxblur_3x3+0xc0>
     568:	524000ef          	jal	a8c <print>
     56c:	01810513          	addi	a0,sp,24
     570:	c11ff0ef          	jal	180 <menu_init>
     574:	00003537          	lui	a0,0x3
     578:	55450513          	addi	a0,a0,1364 # 3554 <boxblur_3x3+0xf0>
     57c:	510000ef          	jal	a8c <print>
     580:	00003537          	lui	a0,0x3
     584:	58450513          	addi	a0,a0,1412 # 3584 <boxblur_3x3+0x120>
     588:	504000ef          	jal	a8c <print>
     58c:	00003537          	lui	a0,0x3
     590:	5b450513          	addi	a0,a0,1460 # 35b4 <boxblur_3x3+0x150>
     594:	4f8000ef          	jal	a8c <print>
     598:	00003537          	lui	a0,0x3
     59c:	5f050513          	addi	a0,a0,1520 # 35f0 <boxblur_3x3+0x18c>
     5a0:	4ec000ef          	jal	a8c <print>
     5a4:	00003537          	lui	a0,0x3
     5a8:	61050513          	addi	a0,a0,1552 # 3610 <boxblur_3x3+0x1ac>
     5ac:	4e0000ef          	jal	a8c <print>
     5b0:	00003537          	lui	a0,0x3
     5b4:	63450513          	addi	a0,a0,1588 # 3634 <boxblur_3x3+0x1d0>
     5b8:	4d4000ef          	jal	a8c <print>
     5bc:	00003537          	lui	a0,0x3
     5c0:	64c50513          	addi	a0,a0,1612 # 364c <boxblur_3x3+0x1e8>
     5c4:	4c8000ef          	jal	a8c <print>
     5c8:	00003537          	lui	a0,0x3
     5cc:	66450513          	addi	a0,a0,1636 # 3664 <boxblur_3x3+0x200>
     5d0:	4bc000ef          	jal	a8c <print>
     5d4:	00003537          	lui	a0,0x3
     5d8:	67850513          	addi	a0,a0,1656 # 3678 <boxblur_3x3+0x214>
     5dc:	4b0000ef          	jal	a8c <print>
     5e0:	000017b7          	lui	a5,0x1
     5e4:	04000a37          	lui	s4,0x4000
     5e8:	040009b7          	lui	s3,0x4000
     5ec:	00002ab7          	lui	s5,0x2
     5f0:	000034b7          	lui	s1,0x3
     5f4:	2a478793          	addi	a5,a5,676 # 12a4 <output_img+0x40>
     5f8:	00002937          	lui	s2,0x2
     5fc:	00003db7          	lui	s11,0x3
     600:	00003d37          	lui	s10,0x3
     604:	00002cb7          	lui	s9,0x2
     608:	2a4a8a93          	addi	s5,s5,676 # 22a4 <input_img+0x40>
     60c:	2a448493          	addi	s1,s1,676 # 32a4 <boxblur_5x5+0x3c>
     610:	00003c37          	lui	s8,0x3
     614:	00003bb7          	lui	s7,0x3
     618:	00f12623          	sw	a5,12(sp)
     61c:	2a490913          	addi	s2,s2,676 # 22a4 <input_img+0x40>
     620:	010a0a13          	addi	s4,s4,16 # 4000010 <_stack_end+0x3efc8ac>
     624:	0d098993          	addi	s3,s3,208 # 40000d0 <_stack_end+0x3efc96c>
     628:	000a2583          	lw	a1,0(s4)
     62c:	0009a603          	lw	a2,0(s3)
     630:	01810513          	addi	a0,sp,24
     634:	3ff5f593          	andi	a1,a1,1023
     638:	00167613          	andi	a2,a2,1
     63c:	b65ff0ef          	jal	1a0 <menu_update>
     640:	01810513          	addi	a0,sp,24
     644:	bb1ff0ef          	jal	1f4 <menu_show>
     648:	0009a783          	lw	a5,0(s3)
     64c:	0017f793          	andi	a5,a5,1
     650:	04078463          	beqz	a5,698 <main+0x1e8>
     654:	02412783          	lw	a5,36(sp)
     658:	06078063          	beqz	a5,6b8 <main+0x208>
     65c:	69cd8513          	addi	a0,s11,1692 # 369c <boxblur_3x3+0x238>
     660:	42c000ef          	jal	a8c <print>
     664:	4a0d0513          	addi	a0,s10,1184 # 34a0 <boxblur_3x3+0x3c>
     668:	424000ef          	jal	a8c <print>
     66c:	000a8413          	mv	s0,s5
     670:	fc040b13          	addi	s6,s0,-64
     674:	3d0000ef          	jal	a44 <uart_getchar>
     678:	fff54713          	not	a4,a0
     67c:	41f75713          	srai	a4,a4,0x1f
     680:	00e57533          	and	a0,a0,a4
     684:	00ab0023          	sb	a0,0(s6)
     688:	001b0b13          	addi	s6,s6,1
     68c:	fe8b14e3          	bne	s6,s0,674 <main+0x1c4>
     690:	04040413          	addi	s0,s0,64
     694:	fc941ee3          	bne	s0,s1,670 <main+0x1c0>
     698:	000a2583          	lw	a1,0(s4)
     69c:	01810513          	addi	a0,sp,24
     6a0:	00000613          	li	a2,0
     6a4:	3ff5f593          	andi	a1,a1,1023
     6a8:	af9ff0ef          	jal	1a0 <menu_update>
     6ac:	01810513          	addi	a0,sp,24
     6b0:	b45ff0ef          	jal	1f4 <menu_show>
     6b4:	f75ff06f          	j	628 <main+0x178>
     6b8:	02812783          	lw	a5,40(sp)
     6bc:	04079c63          	bnez	a5,714 <main+0x264>
     6c0:	02c12783          	lw	a5,44(sp)
     6c4:	fc078ae3          	beqz	a5,698 <main+0x1e8>
     6c8:	000037b7          	lui	a5,0x3
     6cc:	6c878513          	addi	a0,a5,1736 # 36c8 <boxblur_3x3+0x264>
     6d0:	3bc000ef          	jal	a8c <print>
     6d4:	000037b7          	lui	a5,0x3
     6d8:	4e878513          	addi	a0,a5,1256 # 34e8 <boxblur_3x3+0x84>
     6dc:	3b0000ef          	jal	a8c <print>
     6e0:	00001637          	lui	a2,0x1
     6e4:	00000593          	li	a1,0
     6e8:	264c8513          	addi	a0,s9,612 # 2264 <input_img>
     6ec:	1b1000ef          	jal	109c <memset>
     6f0:	000017b7          	lui	a5,0x1
     6f4:	00001637          	lui	a2,0x1
     6f8:	00000593          	li	a1,0
     6fc:	26478513          	addi	a0,a5,612 # 1264 <output_img>
     700:	19d000ef          	jal	109c <memset>
     704:	000037b7          	lui	a5,0x3
     708:	4fc78513          	addi	a0,a5,1276 # 34fc <boxblur_3x3+0x98>
     70c:	380000ef          	jal	a8c <print>
     710:	f89ff06f          	j	698 <main+0x1e8>
     714:	6b0c0513          	addi	a0,s8,1712 # 36b0 <boxblur_3x3+0x24c>
     718:	374000ef          	jal	a8c <print>
     71c:	4b4b8513          	addi	a0,s7,1204 # 34b4 <boxblur_3x3+0x50>
     720:	36c000ef          	jal	a8c <print>
     724:	00c12403          	lw	s0,12(sp)
     728:	fc040b13          	addi	s6,s0,-64
     72c:	000b4503          	lbu	a0,0(s6)
     730:	001b0b13          	addi	s6,s6,1
     734:	2f0000ef          	jal	a24 <uart_putchar>
     738:	fe8b1ae3          	bne	s6,s0,72c <main+0x27c>
     73c:	040b0413          	addi	s0,s6,64
     740:	ff2414e3          	bne	s0,s2,728 <main+0x278>
     744:	000037b7          	lui	a5,0x3
     748:	4cc78513          	addi	a0,a5,1228 # 34cc <boxblur_3x3+0x68>
     74c:	340000ef          	jal	a8c <print>
     750:	f49ff06f          	j	698 <main+0x1e8>
     754:	00003537          	lui	a0,0x3
     758:	53c50513          	addi	a0,a0,1340 # 353c <boxblur_3x3+0xd8>
     75c:	330000ef          	jal	a8c <print>
     760:	e0dff06f          	j	56c <main+0xbc>

00000764 <get_selected_kernel>:
     764:	00452783          	lw	a5,4(a0)
     768:	00300713          	li	a4,3
     76c:	04e78263          	beq	a5,a4,7b0 <get_selected_kernel+0x4c>
     770:	00500693          	li	a3,5
     774:	02d79663          	bne	a5,a3,7a0 <get_selected_kernel+0x3c>
     778:	00052783          	lw	a5,0(a0)
     77c:	00200693          	li	a3,2
     780:	08d78063          	beq	a5,a3,800 <__heap_size>
     784:	04f6ea63          	bltu	a3,a5,7d8 <get_selected_kernel+0x74>
     788:	08078463          	beqz	a5,810 <__heap_size+0x10>
     78c:	01900793          	li	a5,25
     790:	00003537          	lui	a0,0x3
     794:	26850513          	addi	a0,a0,616 # 3268 <boxblur_5x5>
     798:	00f5a023          	sw	a5,0(a1)
     79c:	00008067          	ret
     7a0:	00100793          	li	a5,1
     7a4:	00000513          	li	a0,0
     7a8:	00f5a023          	sw	a5,0(a1)
     7ac:	00008067          	ret
     7b0:	00052703          	lw	a4,0(a0)
     7b4:	00200693          	li	a3,2
     7b8:	06d70463          	beq	a4,a3,820 <__heap_size+0x20>
     7bc:	02e6e863          	bltu	a3,a4,7ec <get_selected_kernel+0x88>
     7c0:	06070863          	beqz	a4,830 <__heap_size+0x30>
     7c4:	00900793          	li	a5,9
     7c8:	00003537          	lui	a0,0x3
     7cc:	46450513          	addi	a0,a0,1124 # 3464 <boxblur_3x3>
     7d0:	00f5a023          	sw	a5,0(a1)
     7d4:	00008067          	ret
     7d8:	fce794e3          	bne	a5,a4,7a0 <get_selected_kernel+0x3c>
     7dc:	00003537          	lui	a0,0x3
     7e0:	00100793          	li	a5,1
     7e4:	40050513          	addi	a0,a0,1024 # 3400 <sharpen_5x5>
     7e8:	fc1ff06f          	j	7a8 <get_selected_kernel+0x44>
     7ec:	faf71ae3          	bne	a4,a5,7a0 <get_selected_kernel+0x3c>
     7f0:	00003537          	lui	a0,0x3
     7f4:	00100793          	li	a5,1
     7f8:	35450513          	addi	a0,a0,852 # 3354 <sharpen_3x3>
     7fc:	fadff06f          	j	7a8 <get_selected_kernel+0x44>
     800:	00003537          	lui	a0,0x3
     804:	10000793          	li	a5,256
     808:	39c50513          	addi	a0,a0,924 # 339c <gaussian_5x5>
     80c:	f9dff06f          	j	7a8 <get_selected_kernel+0x44>
     810:	00003537          	lui	a0,0x3
     814:	00100793          	li	a5,1
     818:	2cc50513          	addi	a0,a0,716 # 32cc <edge_5x5>
     81c:	f8dff06f          	j	7a8 <get_selected_kernel+0x44>
     820:	00003537          	lui	a0,0x3
     824:	01000793          	li	a5,16
     828:	33050513          	addi	a0,a0,816 # 3330 <gaussian_3x3>
     82c:	f7dff06f          	j	7a8 <get_selected_kernel+0x44>
     830:	00003537          	lui	a0,0x3
     834:	00100793          	li	a5,1
     838:	37850513          	addi	a0,a0,888 # 3378 <edge_3x3>
     83c:	f6dff06f          	j	7a8 <get_selected_kernel+0x44>

00000840 <convolve>:
     840:	00078e93          	mv	t4,a5
     844:	01f7d793          	srli	a5,a5,0x1f
     848:	01d787b3          	add	a5,a5,t4
     84c:	00068293          	mv	t0,a3
     850:	1cd05863          	blez	a3,a20 <convolve+0x1e0>
     854:	00060313          	mv	t1,a2
     858:	1cc05463          	blez	a2,a20 <convolve+0x1e0>
     85c:	fd010113          	addi	sp,sp,-48
     860:	00058693          	mv	a3,a1
     864:	00070393          	mv	t2,a4
     868:	01d28633          	add	a2,t0,t4
     86c:	4017d713          	srai	a4,a5,0x1
     870:	00e687b3          	add	a5,a3,a4
     874:	40e60633          	sub	a2,a2,a4
     878:	00000593          	li	a1,0
     87c:	01412e23          	sw	s4,28(sp)
     880:	01512c23          	sw	s5,24(sp)
     884:	01612a23          	sw	s6,20(sp)
     888:	00080a13          	mv	s4,a6
     88c:	02e30b33          	mul	s6,t1,a4
     890:	40ee8833          	sub	a6,t4,a4
     894:	40e00ab3          	neg	s5,a4
     898:	40e30733          	sub	a4,t1,a4
     89c:	02912423          	sw	s1,40(sp)
     8a0:	03312023          	sw	s3,32(sp)
     8a4:	01712823          	sw	s7,16(sp)
     8a8:	00058693          	mv	a3,a1
     8ac:	02812623          	sw	s0,44(sp)
     8b0:	03212223          	sw	s2,36(sp)
     8b4:	01812623          	sw	s8,12(sp)
     8b8:	01912423          	sw	s9,8(sp)
     8bc:	01a12223          	sw	s10,4(sp)
     8c0:	01b12023          	sw	s11,0(sp)
     8c4:	00050e13          	mv	t3,a0
     8c8:	00088993          	mv	s3,a7
     8cc:	00080f13          	mv	t5,a6
     8d0:	00080f93          	mv	t6,a6
     8d4:	00060493          	mv	s1,a2
     8d8:	00078b93          	mv	s7,a5
     8dc:	00070593          	mv	a1,a4
     8e0:	41668833          	sub	a6,a3,s6
     8e4:	000a8713          	mv	a4,s5
     8e8:	00db8633          	add	a2,s7,a3
     8ec:	000f8913          	mv	s2,t6
     8f0:	000f8c13          	mv	s8,t6
     8f4:	00048c93          	mv	s9,s1
     8f8:	000b8d13          	mv	s10,s7
     8fc:	00068513          	mv	a0,a3
     900:	000a8b93          	mv	s7,s5
     904:	00058f93          	mv	t6,a1
     908:	000a0a93          	mv	s5,s4
     90c:	00060493          	mv	s1,a2
     910:	00098a13          	mv	s4,s3
     914:	00080993          	mv	s3,a6
     918:	00070813          	mv	a6,a4
     91c:	0fd05e63          	blez	t4,a18 <convolve+0x1d8>
     920:	41df0733          	sub	a4,t5,t4
     924:	00098693          	mv	a3,s3
     928:	00000613          	li	a2,0
     92c:	00000593          	li	a1,0
     930:	04074063          	bltz	a4,970 <convolve+0x130>
     934:	02575e63          	bge	a4,t0,970 <convolve+0x130>
     938:	00261893          	slli	a7,a2,0x2
     93c:	011388b3          	add	a7,t2,a7
     940:	00080793          	mv	a5,a6
     944:	0207c063          	bltz	a5,964 <convolve+0x124>
     948:	00de0db3          	add	s11,t3,a3
     94c:	00fd8db3          	add	s11,s11,a5
     950:	0067da63          	bge	a5,t1,964 <convolve+0x124>
     954:	000dcd83          	lbu	s11,0(s11)
     958:	0008a403          	lw	s0,0(a7)
     95c:	028d8db3          	mul	s11,s11,s0
     960:	01b585b3          	add	a1,a1,s11
     964:	00178793          	addi	a5,a5,1
     968:	00488893          	addi	a7,a7,4
     96c:	fd279ce3          	bne	a5,s2,944 <convolve+0x104>
     970:	00170713          	addi	a4,a4,1
     974:	006686b3          	add	a3,a3,t1
     978:	01d60633          	add	a2,a2,t4
     97c:	fbe71ae3          	bne	a4,t5,930 <convolve+0xf0>
     980:	0355c7b3          	div	a5,a1,s5
     984:	014787b3          	add	a5,a5,s4
     988:	0ff00713          	li	a4,255
     98c:	010486b3          	add	a3,s1,a6
     990:	06f75c63          	bge	a4,a5,a08 <convolve+0x1c8>
     994:	0ff00793          	li	a5,255
     998:	00f68023          	sb	a5,0(a3)
     99c:	00180813          	addi	a6,a6,1
     9a0:	00190913          	addi	s2,s2,1
     9a4:	f7f81ce3          	bne	a6,t6,91c <convolve+0xdc>
     9a8:	001f0f13          	addi	t5,t5,1
     9ac:	000a0993          	mv	s3,s4
     9b0:	000f8593          	mv	a1,t6
     9b4:	000a8a13          	mv	s4,s5
     9b8:	000c8493          	mv	s1,s9
     9bc:	000b8a93          	mv	s5,s7
     9c0:	000c0f93          	mv	t6,s8
     9c4:	000d0b93          	mv	s7,s10
     9c8:	006506b3          	add	a3,a0,t1
     9cc:	f19f1ae3          	bne	t5,s9,8e0 <convolve+0xa0>
     9d0:	02c12403          	lw	s0,44(sp)
     9d4:	02812483          	lw	s1,40(sp)
     9d8:	02412903          	lw	s2,36(sp)
     9dc:	02012983          	lw	s3,32(sp)
     9e0:	01c12a03          	lw	s4,28(sp)
     9e4:	01812a83          	lw	s5,24(sp)
     9e8:	01412b03          	lw	s6,20(sp)
     9ec:	01012b83          	lw	s7,16(sp)
     9f0:	00c12c03          	lw	s8,12(sp)
     9f4:	00812c83          	lw	s9,8(sp)
     9f8:	00412d03          	lw	s10,4(sp)
     9fc:	00012d83          	lw	s11,0(sp)
     a00:	03010113          	addi	sp,sp,48
     a04:	00008067          	ret
     a08:	fff7c713          	not	a4,a5
     a0c:	41f75713          	srai	a4,a4,0x1f
     a10:	00e7f7b3          	and	a5,a5,a4
     a14:	f85ff06f          	j	998 <convolve+0x158>
     a18:	000a0793          	mv	a5,s4
     a1c:	f6dff06f          	j	988 <convolve+0x148>
     a20:	00008067          	ret

00000a24 <uart_putchar>:
     a24:	04000737          	lui	a4,0x4000
     a28:	04470713          	addi	a4,a4,68 # 4000044 <_stack_end+0x3efc8e0>
     a2c:	000106b7          	lui	a3,0x10
     a30:	00072783          	lw	a5,0(a4)
     a34:	fed7eee3          	bltu	a5,a3,a30 <uart_putchar+0xc>
     a38:	040007b7          	lui	a5,0x4000
     a3c:	04a7a023          	sw	a0,64(a5) # 4000040 <_stack_end+0x3efc8dc>
     a40:	00008067          	ret

00000a44 <uart_getchar>:
     a44:	04000737          	lui	a4,0x4000
     a48:	04472783          	lw	a5,68(a4) # 4000044 <_stack_end+0x3efc8e0>
     a4c:	01079793          	slli	a5,a5,0x10
     a50:	0107d793          	srli	a5,a5,0x10
     a54:	00078863          	beqz	a5,a64 <uart_getchar+0x20>
     a58:	040007b7          	lui	a5,0x4000
     a5c:	0407a503          	lw	a0,64(a5) # 4000040 <_stack_end+0x3efc8dc>
     a60:	00008067          	ret
     a64:	fff00513          	li	a0,-1
     a68:	00008067          	ret

00000a6c <printc>:
     a6c:	04000737          	lui	a4,0x4000
     a70:	04470713          	addi	a4,a4,68 # 4000044 <_stack_end+0x3efc8e0>
     a74:	000106b7          	lui	a3,0x10
     a78:	00072783          	lw	a5,0(a4)
     a7c:	fed7eee3          	bltu	a5,a3,a78 <printc+0xc>
     a80:	040007b7          	lui	a5,0x4000
     a84:	04a7a023          	sw	a0,64(a5) # 4000040 <_stack_end+0x3efc8dc>
     a88:	00008067          	ret

00000a8c <print>:
     a8c:	00054603          	lbu	a2,0(a0)
     a90:	02060863          	beqz	a2,ac0 <print+0x34>
     a94:	04000737          	lui	a4,0x4000
     a98:	040005b7          	lui	a1,0x4000
     a9c:	04470713          	addi	a4,a4,68 # 4000044 <_stack_end+0x3efc8e0>
     aa0:	000106b7          	lui	a3,0x10
     aa4:	04058593          	addi	a1,a1,64 # 4000040 <_stack_end+0x3efc8dc>
     aa8:	00072783          	lw	a5,0(a4)
     aac:	fed7eee3          	bltu	a5,a3,aa8 <print+0x1c>
     ab0:	00c5a023          	sw	a2,0(a1)
     ab4:	00154603          	lbu	a2,1(a0)
     ab8:	00150513          	addi	a0,a0,1
     abc:	fe0616e3          	bnez	a2,aa8 <print+0x1c>
     ac0:	00008067          	ret

00000ac4 <print_dec>:
     ac4:	3b9ad737          	lui	a4,0x3b9ad
     ac8:	040006b7          	lui	a3,0x4000
     acc:	04000337          	lui	t1,0x4000
     ad0:	00a00593          	li	a1,10
     ad4:	00000793          	li	a5,0
     ad8:	a0070713          	addi	a4,a4,-1536 # 3b9aca00 <_stack_end+0x3b8a929c>
     adc:	04468693          	addi	a3,a3,68 # 4000044 <_stack_end+0x3efc8e0>
     ae0:	00010637          	lui	a2,0x10
     ae4:	04030313          	addi	t1,t1,64 # 4000040 <_stack_end+0x3efc8dc>
     ae8:	00a00893          	li	a7,10
     aec:	04e57063          	bgeu	a0,a4,b2c <print_dec+0x68>
     af0:	02079e63          	bnez	a5,b2c <print_dec+0x68>
     af4:	fff58593          	addi	a1,a1,-1
     af8:	02e57533          	remu	a0,a0,a4
     afc:	03175733          	divu	a4,a4,a7
     b00:	fe0596e3          	bnez	a1,aec <print_dec+0x28>
     b04:	02079263          	bnez	a5,b28 <print_dec+0x64>
     b08:	04000737          	lui	a4,0x4000
     b0c:	04470713          	addi	a4,a4,68 # 4000044 <_stack_end+0x3efc8e0>
     b10:	000106b7          	lui	a3,0x10
     b14:	00072783          	lw	a5,0(a4)
     b18:	fed7eee3          	bltu	a5,a3,b14 <print_dec+0x50>
     b1c:	040007b7          	lui	a5,0x4000
     b20:	03000713          	li	a4,48
     b24:	04e7a023          	sw	a4,64(a5) # 4000040 <_stack_end+0x3efc8dc>
     b28:	00008067          	ret
     b2c:	02e55833          	divu	a6,a0,a4
     b30:	03080813          	addi	a6,a6,48
     b34:	0ff87813          	zext.b	a6,a6
     b38:	0006a783          	lw	a5,0(a3) # 10000 <boxblur_3x3+0xcb9c>
     b3c:	fec7eee3          	bltu	a5,a2,b38 <print_dec+0x74>
     b40:	01032023          	sw	a6,0(t1)
     b44:	00100793          	li	a5,1
     b48:	fadff06f          	j	af4 <print_dec+0x30>

00000b4c <print_hex32>:
     b4c:	04000737          	lui	a4,0x4000
     b50:	04470713          	addi	a4,a4,68 # 4000044 <_stack_end+0x3efc8e0>
     b54:	000106b7          	lui	a3,0x10
     b58:	00072783          	lw	a5,0(a4)
     b5c:	fed7eee3          	bltu	a5,a3,b58 <print_hex32+0xc>
     b60:	03000693          	li	a3,48
     b64:	040007b7          	lui	a5,0x4000
     b68:	04000737          	lui	a4,0x4000
     b6c:	04d7a023          	sw	a3,64(a5) # 4000040 <_stack_end+0x3efc8dc>
     b70:	04470713          	addi	a4,a4,68 # 4000044 <_stack_end+0x3efc8e0>
     b74:	000106b7          	lui	a3,0x10
     b78:	00072783          	lw	a5,0(a4)
     b7c:	fed7eee3          	bltu	a5,a3,b78 <print_hex32+0x2c>
     b80:	04000837          	lui	a6,0x4000
     b84:	04080813          	addi	a6,a6,64 # 4000040 <_stack_end+0x3efc8dc>
     b88:	04000737          	lui	a4,0x4000
     b8c:	07800793          	li	a5,120
     b90:	00f82023          	sw	a5,0(a6)
     b94:	01c00613          	li	a2,28
     b98:	00900313          	li	t1,9
     b9c:	04470713          	addi	a4,a4,68 # 4000044 <_stack_end+0x3efc8e0>
     ba0:	000106b7          	lui	a3,0x10
     ba4:	ffc00893          	li	a7,-4
     ba8:	00c557b3          	srl	a5,a0,a2
     bac:	00f7f793          	andi	a5,a5,15
     bb0:	03778593          	addi	a1,a5,55
     bb4:	00f36463          	bltu	t1,a5,bbc <print_hex32+0x70>
     bb8:	03078593          	addi	a1,a5,48
     bbc:	00072783          	lw	a5,0(a4)
     bc0:	fed7eee3          	bltu	a5,a3,bbc <print_hex32+0x70>
     bc4:	00b82023          	sw	a1,0(a6)
     bc8:	ffc60613          	addi	a2,a2,-4 # fffc <boxblur_3x3+0xcb98>
     bcc:	fd161ee3          	bne	a2,a7,ba8 <print_hex32+0x5c>
     bd0:	00008067          	ret

00000bd4 <handle_exception>:
     bd4:	00200793          	li	a5,2
     bd8:	18f80863          	beq	a6,a5,d68 <handle_exception+0x194>
     bdc:	00b00793          	li	a5,11
     be0:	12f80063          	beq	a6,a5,d00 <handle_exception+0x12c>
     be4:	04000737          	lui	a4,0x4000
     be8:	14081463          	bnez	a6,d30 <handle_exception+0x15c>
     bec:	04000837          	lui	a6,0x4000
     bf0:	00003637          	lui	a2,0x3
     bf4:	6dc60613          	addi	a2,a2,1756 # 36dc <boxblur_3x3+0x278>
     bf8:	00a00593          	li	a1,10
     bfc:	04470713          	addi	a4,a4,68 # 4000044 <_stack_end+0x3efc8e0>
     c00:	000106b7          	lui	a3,0x10
     c04:	04080813          	addi	a6,a6,64 # 4000040 <_stack_end+0x3efc8dc>
     c08:	00072783          	lw	a5,0(a4)
     c0c:	fed7eee3          	bltu	a5,a3,c08 <handle_exception+0x34>
     c10:	00b82023          	sw	a1,0(a6)
     c14:	00164583          	lbu	a1,1(a2)
     c18:	00160613          	addi	a2,a2,1
     c1c:	fe0596e3          	bnez	a1,c08 <handle_exception+0x34>
     c20:	04000737          	lui	a4,0x4000
     c24:	04000837          	lui	a6,0x4000
     c28:	00003637          	lui	a2,0x3
     c2c:	75060613          	addi	a2,a2,1872 # 3750 <boxblur_3x3+0x2ec>
     c30:	04500593          	li	a1,69
     c34:	04470713          	addi	a4,a4,68 # 4000044 <_stack_end+0x3efc8e0>
     c38:	000106b7          	lui	a3,0x10
     c3c:	04080813          	addi	a6,a6,64 # 4000040 <_stack_end+0x3efc8dc>
     c40:	00072783          	lw	a5,0(a4)
     c44:	fed7eee3          	bltu	a5,a3,c40 <handle_exception+0x6c>
     c48:	00b82023          	sw	a1,0(a6)
     c4c:	00164583          	lbu	a1,1(a2)
     c50:	00160613          	addi	a2,a2,1
     c54:	fe0596e3          	bnez	a1,c40 <handle_exception+0x6c>
     c58:	04000737          	lui	a4,0x4000
     c5c:	04470713          	addi	a4,a4,68 # 4000044 <_stack_end+0x3efc8e0>
     c60:	000106b7          	lui	a3,0x10
     c64:	00072783          	lw	a5,0(a4)
     c68:	fed7eee3          	bltu	a5,a3,c64 <handle_exception+0x90>
     c6c:	03000693          	li	a3,48
     c70:	040007b7          	lui	a5,0x4000
     c74:	04000737          	lui	a4,0x4000
     c78:	04d7a023          	sw	a3,64(a5) # 4000040 <_stack_end+0x3efc8dc>
     c7c:	04470713          	addi	a4,a4,68 # 4000044 <_stack_end+0x3efc8e0>
     c80:	000106b7          	lui	a3,0x10
     c84:	00072783          	lw	a5,0(a4)
     c88:	fed7eee3          	bltu	a5,a3,c84 <handle_exception+0xb0>
     c8c:	04000837          	lui	a6,0x4000
     c90:	04080813          	addi	a6,a6,64 # 4000040 <_stack_end+0x3efc8dc>
     c94:	04000737          	lui	a4,0x4000
     c98:	07800793          	li	a5,120
     c9c:	00f82023          	sw	a5,0(a6)
     ca0:	01c00613          	li	a2,28
     ca4:	00900313          	li	t1,9
     ca8:	04470713          	addi	a4,a4,68 # 4000044 <_stack_end+0x3efc8e0>
     cac:	000106b7          	lui	a3,0x10
     cb0:	ffc00893          	li	a7,-4
     cb4:	00c557b3          	srl	a5,a0,a2
     cb8:	00f7f793          	andi	a5,a5,15
     cbc:	03778593          	addi	a1,a5,55
     cc0:	00f36463          	bltu	t1,a5,cc8 <handle_exception+0xf4>
     cc4:	03078593          	addi	a1,a5,48
     cc8:	00072783          	lw	a5,0(a4)
     ccc:	fed7eee3          	bltu	a5,a3,cc8 <handle_exception+0xf4>
     cd0:	00b82023          	sw	a1,0(a6)
     cd4:	ffc60613          	addi	a2,a2,-4
     cd8:	fd161ee3          	bne	a2,a7,cb4 <handle_exception+0xe0>
     cdc:	04000737          	lui	a4,0x4000
     ce0:	04470713          	addi	a4,a4,68 # 4000044 <_stack_end+0x3efc8e0>
     ce4:	000106b7          	lui	a3,0x10
     ce8:	00072783          	lw	a5,0(a4)
     cec:	fed7eee3          	bltu	a5,a3,ce8 <handle_exception+0x114>
     cf0:	040007b7          	lui	a5,0x4000
     cf4:	00a00713          	li	a4,10
     cf8:	04e7a023          	sw	a4,64(a5) # 4000040 <_stack_end+0x3efc8dc>
     cfc:	0000006f          	j	cfc <handle_exception+0x128>
     d00:	00400793          	li	a5,4
     d04:	0af88063          	beq	a7,a5,da4 <handle_exception+0x1d0>
     d08:	0d089a63          	bne	a7,a6,ddc <handle_exception+0x208>
     d0c:	04000737          	lui	a4,0x4000
     d10:	04470713          	addi	a4,a4,68 # 4000044 <_stack_end+0x3efc8e0>
     d14:	000106b7          	lui	a3,0x10
     d18:	00072783          	lw	a5,0(a4)
     d1c:	fed7eee3          	bltu	a5,a3,d18 <handle_exception+0x144>
     d20:	040007b7          	lui	a5,0x4000
     d24:	0ff57513          	zext.b	a0,a0
     d28:	04a7a023          	sw	a0,64(a5) # 4000040 <_stack_end+0x3efc8dc>
     d2c:	00008067          	ret
     d30:	04000837          	lui	a6,0x4000
     d34:	00003637          	lui	a2,0x3
     d38:	73060613          	addi	a2,a2,1840 # 3730 <boxblur_3x3+0x2cc>
     d3c:	00a00593          	li	a1,10
     d40:	04470713          	addi	a4,a4,68
     d44:	000106b7          	lui	a3,0x10
     d48:	04080813          	addi	a6,a6,64 # 4000040 <_stack_end+0x3efc8dc>
     d4c:	00072783          	lw	a5,0(a4)
     d50:	fed7eee3          	bltu	a5,a3,d4c <handle_exception+0x178>
     d54:	00b82023          	sw	a1,0(a6)
     d58:	00164583          	lbu	a1,1(a2)
     d5c:	00160613          	addi	a2,a2,1
     d60:	fe0596e3          	bnez	a1,d4c <handle_exception+0x178>
     d64:	ebdff06f          	j	c20 <handle_exception+0x4c>
     d68:	04000737          	lui	a4,0x4000
     d6c:	04000837          	lui	a6,0x4000
     d70:	00003637          	lui	a2,0x3
     d74:	70c60613          	addi	a2,a2,1804 # 370c <boxblur_3x3+0x2a8>
     d78:	00a00593          	li	a1,10
     d7c:	04470713          	addi	a4,a4,68 # 4000044 <_stack_end+0x3efc8e0>
     d80:	000106b7          	lui	a3,0x10
     d84:	04080813          	addi	a6,a6,64 # 4000040 <_stack_end+0x3efc8dc>
     d88:	00072783          	lw	a5,0(a4)
     d8c:	fed7eee3          	bltu	a5,a3,d88 <handle_exception+0x1b4>
     d90:	00b82023          	sw	a1,0(a6)
     d94:	00164583          	lbu	a1,1(a2)
     d98:	00160613          	addi	a2,a2,1
     d9c:	fe0596e3          	bnez	a1,d88 <handle_exception+0x1b4>
     da0:	e81ff06f          	j	c20 <handle_exception+0x4c>
     da4:	00054603          	lbu	a2,0(a0)
     da8:	02060a63          	beqz	a2,ddc <handle_exception+0x208>
     dac:	04000737          	lui	a4,0x4000
     db0:	040005b7          	lui	a1,0x4000
     db4:	04470713          	addi	a4,a4,68 # 4000044 <_stack_end+0x3efc8e0>
     db8:	000106b7          	lui	a3,0x10
     dbc:	04058593          	addi	a1,a1,64 # 4000040 <_stack_end+0x3efc8dc>
     dc0:	00072783          	lw	a5,0(a4)
     dc4:	fed7eee3          	bltu	a5,a3,dc0 <handle_exception+0x1ec>
     dc8:	00c5a023          	sw	a2,0(a1)
     dcc:	00154603          	lbu	a2,1(a0)
     dd0:	00150513          	addi	a0,a0,1
     dd4:	fe0616e3          	bnez	a2,dc0 <handle_exception+0x1ec>
     dd8:	00008067          	ret
     ddc:	00008067          	ret

00000de0 <nextprime>:
     de0:	00200713          	li	a4,2
     de4:	00050793          	mv	a5,a0
     de8:	02a74063          	blt	a4,a0,e08 <nextprime+0x28>
     dec:	00100513          	li	a0,1
     df0:	00f05a63          	blez	a5,e04 <nextprime+0x24>
     df4:	fff78793          	addi	a5,a5,-1
     df8:	00f037b3          	snez	a5,a5
     dfc:	00278513          	addi	a0,a5,2
     e00:	00008067          	ret
     e04:	00008067          	ret
     e08:	00150793          	addi	a5,a0,1
     e0c:	0017e513          	ori	a0,a5,1
     e10:	00300613          	li	a2,3
     e14:	02c567b3          	rem	a5,a0,a2
     e18:	40155693          	srai	a3,a0,0x1
     e1c:	02078263          	beqz	a5,e40 <nextprime+0x60>
     e20:	00268693          	addi	a3,a3,2 # 10002 <boxblur_3x3+0xcb9e>
     e24:	00300793          	li	a5,3
     e28:	00c0006f          	j	e34 <nextprime+0x54>
     e2c:	02f56733          	rem	a4,a0,a5
     e30:	00070863          	beqz	a4,e40 <nextprime+0x60>
     e34:	00178793          	addi	a5,a5,1
     e38:	fef69ae3          	bne	a3,a5,e2c <nextprime+0x4c>
     e3c:	00008067          	ret
     e40:	00250513          	addi	a0,a0,2
     e44:	fd1ff06f          	j	e14 <nextprime+0x34>

00000e48 <display_string>:
     e48:	00400893          	li	a7,4
     e4c:	00000073          	ecall
     e50:	00a00513          	li	a0,10
     e54:	00b00893          	li	a7,11
     e58:	00000073          	ecall
     e5c:	00008067          	ret

00000e60 <timetemplate>:
     e60:	00000517          	auipc	a0,0x0
     e64:	3dc50513          	addi	a0,a0,988 # 123c <timstr>
     e68:	fe1ff0ef          	jal	e48 <display_string>
     e6c:	00001537          	lui	a0,0x1
     e70:	38850513          	addi	a0,a0,904 # 1388 <output_img+0x124>
     e74:	19c000ef          	jal	1010 <delay>
     e78:	00000517          	auipc	a0,0x0
     e7c:	3c050513          	addi	a0,a0,960 # 1238 <mytime>
     e80:	020000ef          	jal	ea0 <tick>
     e84:	00000517          	auipc	a0,0x0
     e88:	3b850513          	addi	a0,a0,952 # 123c <timstr>
     e8c:	00000297          	auipc	t0,0x0
     e90:	3ac28293          	addi	t0,t0,940 # 1238 <mytime>
     e94:	0002a583          	lw	a1,0(t0)
     e98:	080000ef          	jal	f18 <time2string>
     e9c:	fc5ff06f          	j	e60 <timetemplate>

00000ea0 <tick>:
     ea0:	00052283          	lw	t0,0(a0)
     ea4:	00128293          	addi	t0,t0,1
     ea8:	00f2f313          	andi	t1,t0,15
     eac:	00a33393          	sltiu	t2,t1,10
     eb0:	06039063          	bnez	t2,f10 <tiend>
     eb4:	00628293          	addi	t0,t0,6
     eb8:	0f02f313          	andi	t1,t0,240
     ebc:	06033393          	sltiu	t2,t1,96
     ec0:	04039863          	bnez	t2,f10 <tiend>
     ec4:	0a028293          	addi	t0,t0,160
     ec8:	00f00e13          	li	t3,15
     ecc:	008e1e13          	slli	t3,t3,0x8
     ed0:	01c2f333          	and	t1,t0,t3
     ed4:	00a00e13          	li	t3,10
     ed8:	008e1e13          	slli	t3,t3,0x8
     edc:	01c323b3          	slt	t2,t1,t3
     ee0:	02039863          	bnez	t2,f10 <tiend>
     ee4:	60028293          	addi	t0,t0,1536
     ee8:	00f00e13          	li	t3,15
     eec:	00ce1e13          	slli	t3,t3,0xc
     ef0:	01c2f333          	and	t1,t0,t3
     ef4:	00600e13          	li	t3,6
     ef8:	00ce1e13          	slli	t3,t3,0xc
     efc:	01c323b3          	slt	t2,t1,t3
     f00:	00039863          	bnez	t2,f10 <tiend>
     f04:	00a00e13          	li	t3,10
     f08:	00ce1e13          	slli	t3,t3,0xc
     f0c:	01c282b3          	add	t0,t0,t3

00000f10 <tiend>:
     f10:	00552023          	sw	t0,0(a0)
     f14:	00008067          	ret

00000f18 <time2string>:
     f18:	ff410113          	addi	sp,sp,-12
     f1c:	00112023          	sw	ra,0(sp)
     f20:	00812223          	sw	s0,4(sp)
     f24:	00912423          	sw	s1,8(sp)
     f28:	00050433          	add	s0,a0,zero
     f2c:	000584b3          	add	s1,a1,zero
     f30:	0004d293          	srli	t0,s1,0x0
     f34:	0ff2f293          	zext.b	t0,t0
     f38:	0084d313          	srli	t1,s1,0x8
     f3c:	0ff37313          	zext.b	t1,t1
     f40:	006282b3          	add	t0,t0,t1
     f44:	06028e63          	beqz	t0,fc0 <hourbranch>
     f48:	00c4d293          	srli	t0,s1,0xc
     f4c:	00f2f293          	andi	t0,t0,15
     f50:	00028533          	add	a0,t0,zero
     f54:	124000ef          	jal	1078 <hexasc>
     f58:	00a40023          	sb	a0,0(s0)
     f5c:	00140413          	addi	s0,s0,1
     f60:	0084d293          	srli	t0,s1,0x8
     f64:	00f2f293          	andi	t0,t0,15
     f68:	00028533          	add	a0,t0,zero
     f6c:	10c000ef          	jal	1078 <hexasc>
     f70:	00a40023          	sb	a0,0(s0)
     f74:	00140413          	addi	s0,s0,1
     f78:	03a00513          	li	a0,58
     f7c:	00a40023          	sb	a0,0(s0)
     f80:	00140413          	addi	s0,s0,1
     f84:	0044d293          	srli	t0,s1,0x4
     f88:	00f2f293          	andi	t0,t0,15
     f8c:	00028533          	add	a0,t0,zero
     f90:	0e8000ef          	jal	1078 <hexasc>
     f94:	00a40023          	sb	a0,0(s0)
     f98:	00140413          	addi	s0,s0,1
     f9c:	0004d293          	srli	t0,s1,0x0
     fa0:	00f2f293          	andi	t0,t0,15
     fa4:	00028533          	add	a0,t0,zero
     fa8:	0d0000ef          	jal	1078 <hexasc>
     fac:	00a40023          	sb	a0,0(s0)
     fb0:	00140413          	addi	s0,s0,1
     fb4:	00000513          	li	a0,0
     fb8:	00a40023          	sb	a0,0(s0)
     fbc:	0400006f          	j	ffc <pop>

00000fc0 <hourbranch>:
     fc0:	04800513          	li	a0,72
     fc4:	00a40023          	sb	a0,0(s0)
     fc8:	00140413          	addi	s0,s0,1
     fcc:	04f00513          	li	a0,79
     fd0:	00a40023          	sb	a0,0(s0)
     fd4:	00140413          	addi	s0,s0,1
     fd8:	05500513          	li	a0,85
     fdc:	00a40023          	sb	a0,0(s0)
     fe0:	00140413          	addi	s0,s0,1
     fe4:	05200513          	li	a0,82
     fe8:	00a40023          	sb	a0,0(s0)
     fec:	00140413          	addi	s0,s0,1
     ff0:	00000513          	li	a0,0
     ff4:	00a40023          	sb	a0,0(s0)
     ff8:	0040006f          	j	ffc <pop>

00000ffc <pop>:
     ffc:	00012083          	lw	ra,0(sp)
    1000:	00412403          	lw	s0,4(sp)
    1004:	00812483          	lw	s1,8(sp)
    1008:	00c10113          	addi	sp,sp,12
    100c:	00008067          	ret

00001010 <delay>:
    1010:	ff410113          	addi	sp,sp,-12
    1014:	00112023          	sw	ra,0(sp)
    1018:	00812223          	sw	s0,4(sp)
    101c:	00912423          	sw	s1,8(sp)
    1020:	00050433          	add	s0,a0,zero
    1024:	00000493          	li	s1,0

00001028 <whileloop>:
    1028:	00805c63          	blez	s0,1040 <exit>
    102c:	fff40413          	addi	s0,s0,-1

00001030 <forloop>:
    1030:	00100293          	li	t0,1
    1034:	fe54dae3          	bge	s1,t0,1028 <whileloop>
    1038:	00148493          	addi	s1,s1,1
    103c:	ff5ff06f          	j	1030 <forloop>

00001040 <exit>:
    1040:	00012083          	lw	ra,0(sp)
    1044:	00412403          	lw	s0,4(sp)
    1048:	00812483          	lw	s1,8(sp)
    104c:	00c10113          	addi	sp,sp,12
    1050:	00008067          	ret

00001054 <hex2asc>:
    1054:	00a00513          	li	a0,10
    1058:	ffc10113          	addi	sp,sp,-4
    105c:	00112023          	sw	ra,0(sp)
    1060:	018000ef          	jal	1078 <hexasc>
    1064:	00b00893          	li	a7,11
    1068:	00000073          	ecall
    106c:	00012083          	lw	ra,0(sp)
    1070:	00410113          	addi	sp,sp,4
    1074:	00008067          	ret

00001078 <hexasc>:
    1078:	00f57513          	andi	a0,a0,15
    107c:	00a00293          	li	t0,10
    1080:	00554863          	blt	a0,t0,1090 <digit>
    1084:	03750513          	addi	a0,a0,55
    1088:	07f57513          	andi	a0,a0,127
    108c:	00008067          	ret

00001090 <digit>:
    1090:	03050513          	addi	a0,a0,48
    1094:	07f57513          	andi	a0,a0,127
    1098:	00008067          	ret

0000109c <memset>:
    109c:	fff60813          	addi	a6,a2,-1
    10a0:	0c060863          	beqz	a2,1170 <memset+0xd4>
    10a4:	40a006b3          	neg	a3,a0
    10a8:	00500893          	li	a7,5
    10ac:	0ff5f713          	zext.b	a4,a1
    10b0:	0036f793          	andi	a5,a3,3
    10b4:	0d08f063          	bgeu	a7,a6,1174 <memset+0xd8>
    10b8:	00050593          	mv	a1,a0
    10bc:	02078c63          	beqz	a5,10f4 <memset+0x58>
    10c0:	00e50023          	sb	a4,0(a0)
    10c4:	0026f693          	andi	a3,a3,2
    10c8:	00150593          	addi	a1,a0,1
    10cc:	ffe60813          	addi	a6,a2,-2
    10d0:	02068263          	beqz	a3,10f4 <memset+0x58>
    10d4:	00e500a3          	sb	a4,1(a0)
    10d8:	00300693          	li	a3,3
    10dc:	00250593          	addi	a1,a0,2
    10e0:	ffd60813          	addi	a6,a2,-3
    10e4:	00d79863          	bne	a5,a3,10f4 <memset+0x58>
    10e8:	00350593          	addi	a1,a0,3
    10ec:	00e50123          	sb	a4,2(a0)
    10f0:	ffc60813          	addi	a6,a2,-4
    10f4:	00871693          	slli	a3,a4,0x8
    10f8:	40f60633          	sub	a2,a2,a5
    10fc:	01071313          	slli	t1,a4,0x10
    1100:	00d766b3          	or	a3,a4,a3
    1104:	01871893          	slli	a7,a4,0x18
    1108:	0066e6b3          	or	a3,a3,t1
    110c:	00f507b3          	add	a5,a0,a5
    1110:	ffc67313          	andi	t1,a2,-4
    1114:	0116e6b3          	or	a3,a3,a7
    1118:	006788b3          	add	a7,a5,t1
    111c:	00d7a023          	sw	a3,0(a5)
    1120:	00478793          	addi	a5,a5,4
    1124:	ff179ce3          	bne	a5,a7,111c <memset+0x80>
    1128:	04660463          	beq	a2,t1,1170 <memset+0xd4>
    112c:	006587b3          	add	a5,a1,t1
    1130:	40680833          	sub	a6,a6,t1
    1134:	00e78023          	sb	a4,0(a5)
    1138:	02080c63          	beqz	a6,1170 <memset+0xd4>
    113c:	00e780a3          	sb	a4,1(a5)
    1140:	00100693          	li	a3,1
    1144:	02d80663          	beq	a6,a3,1170 <memset+0xd4>
    1148:	00e78123          	sb	a4,2(a5)
    114c:	00200693          	li	a3,2
    1150:	02d80063          	beq	a6,a3,1170 <memset+0xd4>
    1154:	00e781a3          	sb	a4,3(a5)
    1158:	00300693          	li	a3,3
    115c:	00d80a63          	beq	a6,a3,1170 <memset+0xd4>
    1160:	00e78223          	sb	a4,4(a5)
    1164:	00400693          	li	a3,4
    1168:	00d80463          	beq	a6,a3,1170 <memset+0xd4>
    116c:	00e782a3          	sb	a4,5(a5)
    1170:	00008067          	ret
    1174:	00050793          	mv	a5,a0
    1178:	fbdff06f          	j	1134 <memset+0x98>
